(dp1
I0
(S's00124'
p2
I0
tp3
sI1
(g2
I1
tp4
sI2
(g2
I2
tp5
sI3
(g2
I3
tp6
sI4
(S's00177'
p7
I0
tp8
sI5
(S's00283'
p9
I0
tp10
sI6
(S's00308'
p11
I0
tp12
sI7
(g11
I1
tp13
sI8
(S's00377'
p14
I0
tp15
sI9
(S's00408'
p16
I0
tp17
sI10
(g16
I1
tp18
sI11
(g16
I2
tp19
sI12
(S's00491'
p20
I0
tp21
sI13
(g20
I1
tp22
sI14
(S's00521'
p23
I0
tp24
sI15
(g23
I1
tp25
sI16
(S's00565'
p26
I0
tp27
sI17
(g26
I1
tp28
sI18
(S's00593'
p29
I0
tp30
sI19
(S's00618'
p31
I0
tp32
sI20
(g31
I1
tp33
sI21
(S's00631'
p34
I0
tp35
sI22
(S's00634'
p36
I0
tp37
sI23
(g36
I1
tp38
sI24
(S's00668'
p39
I0
tp40
sI25
(S's00682'
p41
I0
tp42
sI26
(S's00719'
p43
I0
tp44
sI27
(g43
I1
tp45
sI28
(g43
I2
tp46
sI29
(S's00787'
p47
I0
tp48
sI30
(g47
I1
tp49
sI31
(g47
I2
tp50
sI32
(g47
I3
tp51
sI33
(g47
I4
tp52
sI34
(S's00871'
p53
I0
tp54
sI35
(g53
I1
tp55
sI36
(g53
I2
tp56
sI37
(g53
I3
tp57
sI38
(S's00985'
p58
I0
tp59
sI39
(S's00992'
p60
I0
tp61
sI40
(S's01092'
p62
I0
tp63
sI41
(S's01158'
p64
I0
tp65
sI42
(g64
I1
tp66
sI43
(g64
I2
tp67
sI44
(g64
I3
tp68
sI45
(g64
I4
tp69
sI46
(S's01182'
p70
I0
tp71
sI47
(g70
I1
tp72
sI48
(S's01202'
p73
I0
tp74
sI49
(S's01207'
p75
I0
tp76
sI50
(S's01313'
p77
I0
tp78
sI51
(S's01357'
p79
I0
tp80
sI52
(S's01378'
p81
I0
tp82
sI53
(S's01449'
p83
I0
tp84
sI54
(S's01453'
p85
I0
tp86
sI55
(g85
I1
tp87
sI56
(S's01474'
p88
I0
tp89
sI57
(g88
I1
tp90
sI58
(g88
I2
tp91
sI59
(S's01501'
p92
I0
tp93
sI60
(g92
I1
tp94
sI61
(g92
I2
tp95
sI62
(S's01521'
p96
I0
tp97
sI63
(g96
I1
tp98
sI64
(S's01528'
p99
I0
tp100
sI65
(S's01531'
p101
I0
tp102
sI66
(g101
I1
tp103
sI67
(g101
I2
tp104
sI68
(g101
I3
tp105
sI69
(S's01586'
p106
I0
tp107
sI70
(g106
I1
tp108
sI71
(S's01604'
p109
I0
tp110
sI72
(g109
I1
tp111
sI73
(g109
I2
tp112
sI74
(g109
I3
tp113
sI75
(g109
I4
tp114
sI76
(S's01606'
p115
I0
tp116
sI77
(g115
I1
tp117
sI78
(S's01621'
p118
I0
tp119
sI79
(S's01758'
p120
I0
tp121
sI80
(g120
I1
tp122
sI81
(S's01795'
p123
I0
tp124
sI82
(g123
I1
tp125
sI83
(g123
I2
tp126
sI84
(S's01855'
p127
I0
tp128
sI85
(g127
I1
tp129
sI86
(g127
I2
tp130
sI87
(g127
I3
tp131
sI88
(S's01868'
p132
I0
tp133
sI89
(g132
I1
tp134
sI90
(S's01892'
p135
I0
tp136
sI91
(g135
I1
tp137
sI92
(S's01898'
p138
I0
tp139
sI93
(g138
I1
tp140
sI94
(S's01931'
p141
I0
tp142
sI95
(g141
I1
tp143
sI96
(g141
I2
tp144
sI97
(S's01944'
p145
I0
tp146
sI98
(g145
I1
tp147
sI99
(g145
I2
tp148
sI100
(S's01950'
p149
I0
tp150
sI101
(g149
I1
tp151
sI102
(g149
I2
tp152
sI103
(g149
I3
tp153
sI104
(S's01979'
p154
I0
tp155
sI105
(S's02014'
p156
I0
tp157
sI106
(g156
I1
tp158
sI107
(S's02187'
p159
I0
tp160
sI108
(g159
I1
tp161
sI109
(S's02213'
p162
I0
tp163
sI110
(g162
I1
tp164
sI111
(g162
I2
tp165
sI112
(S's02228'
p166
I0
tp167
sI113
(g166
I1
tp168
sI114
(S's02261'
p169
I0
tp170
sI115
(S's02332'
p171
I0
tp172
sI116
(g171
I1
tp173
sI117
(S's02395'
p174
I0
tp175
sI118
(S's02477'
p176
I0
tp177
sI119
(g176
I1
tp178
sI120
(g176
I2
tp179
sI121
(g176
I3
tp180
sI122
(S's02488'
p181
I0
tp182
sI123
(g181
I1
tp183
sI124
(S's02561'
p184
I0
tp185
sI125
(g184
I1
tp186
sI126
(g184
I2
tp187
sI127
(S's02614'
p188
I0
tp189
sI128
(S's02664'
p190
I0
tp191
sI129
(S's02708'
p192
I0
tp193
sI130
(g192
I1
tp194
sI131
(g192
I2
tp195
sI132
(S's02725'
p196
I0
tp197
sI133
(g196
I1
tp198
sI134
(S's02827'
p199
I0
tp200
sI135
(g199
I1
tp201
sI136
(g199
I2
tp202
sI137
(S's02906'
p203
I0
tp204
sI138
(g203
I1
tp205
sI139
(g203
I2
tp206
sI140
(S's03024'
p207
I0
tp208
sI141
(S's03165'
p209
I0
tp210
sI142
(g209
I1
tp211
sI143
(S's03245'
p212
I0
tp213
sI144
(g212
I1
tp214
sI145
(S's03261'
p215
I0
tp216
sI146
(S's03286'
p217
I0
tp218
sI147
(S's03287'
p219
I0
tp220
sI148
(S's03372'
p221
I0
tp222
sI149
(g221
I1
tp223
sI150
(S's03386'
p224
I0
tp225
sI151
(g224
I1
tp226
sI152
(g224
I2
tp227
sI153
(g224
I3
tp228
sI154
(g224
I4
tp229
sI155
(g224
I5
tp230
sI156
(g224
I6
tp231
sI157
(g224
I7
tp232
sI158
(g224
I8
tp233
sI159
(g224
I9
tp234
sI160
(g224
I10
tp235
sI161
(S's03424'
p236
I0
tp237
sI162
(g236
I1
tp238
sI163
(g236
I2
tp239
sI164
(S's03466'
p240
I0
tp241
sI165
(g240
I1
tp242
sI166
(S's03474'
p243
I0
tp244
sI167
(g243
I1
tp245
sI168
(g243
I2
tp246
sI169
(S's03554'
p247
I0
tp248
sI170
(g247
I1
tp249
sI171
(S's03593'
p250
I0
tp251
sI172
(g250
I1
tp252
sI173
(S's03652'
p253
I0
tp254
sI174
(S's03759'
p255
I0
tp256
sI175
(S's03780'
p257
I0
tp258
sI176
(S's03830'
p259
I0
tp260
sI177
(S's03883'
p261
I0
tp262
sI178
(S's03884'
p263
I0
tp264
sI179
(S's03886'
p265
I0
tp266
sI180
(S's03929'
p267
I0
tp268
sI181
(g267
I1
tp269
sI182
(g267
I2
tp270
sI183
(S's03932'
p271
I0
tp272
sI184
(g271
I1
tp273
sI185
(S's04068'
p274
I0
tp275
sI186
(S's04076'
p276
I0
tp277
sI187
(S's04077'
p278
I0
tp279
sI188
(g278
I1
tp280
sI189
(S's04252'
p281
I0
tp282
sI190
(S's04254'
p283
I0
tp284
sI191
(g283
I1
tp285
sI192
(S's04263'
p286
I0
tp287
sI193
(g286
I1
tp288
sI194
(S's04264'
p289
I0
tp290
sI195
(S's04270'
p291
I0
tp292
sI196
(S's04338'
p293
I0
tp294
sI197
(S's04348'
p295
I0
tp296
sI198
(g295
I1
tp297
sI199
(S's04350'
p298
I0
tp299
sI200
(S's04369'
p300
I0
tp301
sI201
(S's04474'
p302
I0
tp303
sI202
(g302
I1
tp304
sI203
(S's04565'
p305
I0
tp306
sI204
(S's04655'
p307
I0
tp308
sI205
(g307
I1
tp309
sI206
(S's04806'
p310
I0
tp311
sI207
(S's04833'
p312
I0
tp313
sI208
(g312
I1
tp314
sI209
(S's04893'
p315
I0
tp316
sI210
(S's04894'
p317
I0
tp318
sI211
(g317
I1
tp319
sI212
(g317
I2
tp320
sI213
(g317
I3
tp321
sI214
(S's04968'
p322
I0
tp323
sI215
(S's05198'
p324
I0
tp325
sI216
(g324
I1
tp326
sI217
(g324
I2
tp327
sI218
(S's05201'
p328
I0
tp329
sI219
(S's05205'
p330
I0
tp331
sI220
(g330
I1
tp332
sI221
(S's05254'
p333
I0
tp334
sI222
(S's05282'
p335
I0
tp336
sI223
(g335
I1
tp337
sI224
(S's05307'
p338
I0
tp339
sI225
(S's05354'
p340
I0
tp341
sI226
(S's05369'
p342
I0
tp343
sI227
(g342
I1
tp344
sI228
(g342
I2
tp345
sI229
(S's05382'
p346
I0
tp347
sI230
(S's05494'
p348
I0
tp349
sI231
(S's05506'
p350
I0
tp351
sI232
(g350
I1
tp352
sI233
(S's05569'
p353
I0
tp354
sI234
(S's05606'
p355
I0
tp356
sI235
(g355
I1
tp357
sI236
(g355
I2
tp358
sI237
(S's05607'
p359
I0
tp360
sI238
(S's05619'
p361
I0
tp362
sI239
(g361
I1
tp363
sI240
(g361
I2
tp364
sI241
(g361
I3
tp365
sI242
(S's05632'
p366
I0
tp367
sI243
(g366
I1
tp368
sI244
(g366
I2
tp369
sI245
(S's05675'
p370
I0
tp371
sI246
(g370
I1
tp372
sI247
(S's05701'
p373
I0
tp374
sI248
(g373
I1
tp375
sI249
(g373
I2
tp376
sI250
(S's05712'
p377
I0
tp378
sI251
(g377
I1
tp379
sI252
(g377
I2
tp380
sI253
(S's05738'
p381
I0
tp382
sI254
(S's05742'
p383
I0
tp384
sI255
(S's05784'
p385
I0
tp386
sI256
(g385
I1
tp387
sI257
(g385
I2
tp388
sI258
(g385
I3
tp389
sI259
(S's05786'
p390
I0
tp391
sI260
(g390
I1
tp392
sI261
(g390
I2
tp393
sI262
(g390
I3
tp394
sI263
(S's05791'
p395
I0
tp396
sI264
(g395
I1
tp397
sI265
(S's05896'
p398
I0
tp399
sI266
(S's05957'
p400
I0
tp401
sI267
(S's05960'
p402
I0
tp403
sI268
(g402
I1
tp404
sI269
(g402
I2
tp405
sI270
(S's05964'
p406
I0
tp407
sI271
(g406
I1
tp408
sI272
(S's06017'
p409
I0
tp410
sI273
(S's06039'
p411
I0
tp412
sI274
(S's06042'
p413
I0
tp414
sI275
(g413
I1
tp415
sI276
(g413
I2
tp416
sI277
(g413
I3
tp417
sI278
(g413
I4
tp418
sI279
(S's06053'
p419
I0
tp420
sI280
(g419
I1
tp421
sI281
(S's06077'
p422
I0
tp423
sI282
(S's06335'
p424
I0
tp425
sI283
(S's06349'
p426
I0
tp427
sI284
(g426
I1
tp428
sI285
(g426
I2
tp429
sI286
(S's06464'
p430
I0
tp431
sI287
(S's06470'
p432
I0
tp433
sI288
(g432
I1
tp434
sI289
(g432
I2
tp435
sI290
(g432
I3
tp436
sI291
(S's06605'
p437
I0
tp438
sI292
(g437
I1
tp439
sI293
(S's06707'
p440
I0
tp441
sI294
(S's06809'
p442
I0
tp443
sI295
(g442
I1
tp444
sI296
(g442
I2
tp445
sI297
(g442
I3
tp446
sI298
(S's06892'
p447
I0
tp448
sI299
(g447
I1
tp449
sI300
(S's06983'
p450
I0
tp451
sI301
(S's07224'
p452
I0
tp453
sI302
(g452
I1
tp454
sI303
(g452
I2
tp455
sI304
(S's07225'
p456
I0
tp457
sI305
(g456
I1
tp458
sI306
(S's07234'
p459
I0
tp460
sI307
(g459
I1
tp461
sI308
(S's07251'
p462
I0
tp463
sI309
(g462
I1
tp464
sI310
(S's07265'
p465
I0
tp466
sI311
(g465
I1
tp467
sI312
(g465
I2
tp468
sI313
(g465
I3
tp469
sI314
(g465
I4
tp470
sI315
(S's07328'
p471
I0
tp472
sI316
(S's07432'
p473
I0
tp474
sI317
(S's07492'
p475
I0
tp476
sI318
(g475
I1
tp477
sI319
(S's07497'
p478
I0
tp479
sI320
(S's07519'
p480
I0
tp481
sI321
(g480
I1
tp482
sI322
(S's07522'
p483
I0
tp484
sI323
(S's07528'
p485
I0
tp486
sI324
(S's07655'
p487
I0
tp488
sI325
(g487
I1
tp489
sI326
(g487
I2
tp490
sI327
(g487
I3
tp491
sI328
(g487
I4
tp492
sI329
(S's07728'
p493
I0
tp494
sI330
(g493
I1
tp495
sI331
(S's07760'
p496
I0
tp497
sI332
(g496
I1
tp498
sI333
(S's07782'
p499
I0
tp500
sI334
(g499
I1
tp501
sI335
(S's07786'
p502
I0
tp503
sI336
(g502
I1
tp504
sI337
(g502
I2
tp505
sI338
(S's07860'
p506
I0
tp507
sI339
(S's07874'
p508
I0
tp509
sI340
(S's07910'
p510
I0
tp511
sI341
(g510
I1
tp512
sI342
(g510
I2
tp513
sI343
(S's07985'
p514
I0
tp515
sI344
(g514
I1
tp516
sI345
(S's08009'
p517
I0
tp518
sI346
(g517
I1
tp519
sI347
(g517
I2
tp520
sI348
(S's08084'
p521
I0
tp522
sI349
(g521
I1
tp523
sI350
(g521
I2
tp524
sI351
(S's08087'
p525
I0
tp526
sI352
(S's08115'
p527
I0
tp528
sI353
(g527
I1
tp529
sI354
(g527
I2
tp530
sI355
(g527
I3
tp531
sI356
(S's08126'
p532
I0
tp533
sI357
(S's08141'
p534
I0
tp535
sI358
(g534
I1
tp536
sI359
(g534
I2
tp537
sI360
(S's08186'
p538
I0
tp539
sI361
(S's08187'
p540
I0
tp541
sI362
(S's08221'
p542
I0
tp543
sI363
(S's08231'
p544
I0
tp545
sI364
(S's08368'
p546
I0
tp547
sI365
(g546
I1
tp548
sI366
(g546
I2
tp549
sI367
(g546
I3
tp550
sI368
(g546
I4
tp551
sI369
(g546
I5
tp552
sI370
(g546
I6
tp553
sI371
(S's08396'
p554
I0
tp555
sI372
(g554
I1
tp556
sI373
(S's08445'
p557
I0
tp558
sI374
(g557
I1
tp559
sI375
(S's08509'
p560
I0
tp561
sI376
(S's08516'
p562
I0
tp563
sI377
(g562
I1
tp564
sI378
(g562
I2
tp565
sI379
(S's08569'
p566
I0
tp567
sI380
(g566
I1
tp568
sI381
(S's08718'
p569
I0
tp570
sI382
(g569
I1
tp571
sI383
(g569
I2
tp572
sI384
(S's08734'
p573
I0
tp574
sI385
(S's08749'
p575
I0
tp576
sI386
(S's08896'
p577
I0
tp578
sI387
(S's08915'
p579
I0
tp580
sI388
(g579
I1
tp581
sI389
(g579
I2
tp582
sI390
(g579
I3
tp583
sI391
(g579
I4
tp584
sI392
(S's08985'
p585
I0
tp586
sI393
(S's08996'
p587
I0
tp588
sI394
(g587
I1
tp589
sI395
(S's09031'
p590
I0
tp591
sI396
(g590
I1
tp592
sI397
(g590
I2
tp593
sI398
(S's09130'
p594
I0
tp595
sI399
(S's09258'
p596
I0
tp597
sI400
(S's09278'
p598
I0
tp599
sI401
(g598
I1
tp600
sI402
(g598
I2
tp601
sI403
(g598
I3
tp602
sI404
(S's09300'
p603
I0
tp604
sI405
(S's09335'
p605
I0
tp606
sI406
(g605
I1
tp607
sI407
(S's09338'
p608
I0
tp609
sI408
(S's09358'
p610
I0
tp611
sI409
(S's09473'
p612
I0
tp613
sI410
(S's09526'
p614
I0
tp615
sI411
(g614
I1
tp616
sI412
(S's09536'
p617
I0
tp618
sI413
(S's09595'
p619
I0
tp620
sI414
(S's09642'
p621
I0
tp622
sI415
(S's09732'
p623
I0
tp624
sI416
(S's09920'
p625
I0
tp626
sI417
(S's09951'
p627
I0
tp628
sI418
(S's10045'
p629
I0
tp630
sI419
(S's10083'
p631
I0
tp632
sI420
(g631
I1
tp633
sI421
(S's10188'
p634
I0
tp635
sI422
(S's10241'
p636
I0
tp637
sI423
(S's10277'
p638
I0
tp639
sI424
(S's10305'
p640
I0
tp641
sI425
(S's10315'
p642
I0
tp643
sI426
(S's10362'
p644
I0
tp645
sI427
(S's10487'
p646
I0
tp647
sI428
(g646
I1
tp648
sI429
(S's10525'
p649
I0
tp650
sI430
(S's10534'
p651
I0
tp652
sI431
(g651
I1
tp653
sI432
(g651
I2
tp654
sI433
(S's10552'
p655
I0
tp656
sI434
(g655
I1
tp657
sI435
(g655
I2
tp658
sI436
(S's10564'
p659
I0
tp660
sI437
(S's10653'
p661
I0
tp662
sI438
(g661
I1
tp663
sI439
(S's10842'
p664
I0
tp665
sI440
(g664
I1
tp666
sI441
(g664
I2
tp667
sI442
(S's10872'
p668
I0
tp669
sI443
(g668
I1
tp670
sI444
(S's10906'
p671
I0
tp672
sI445
(g671
I1
tp673
sI446
(S's10925'
p674
I0
tp675
sI447
(g674
I1
tp676
sI448
(g674
I2
tp677
sI449
(g674
I3
tp678
sI450
(g674
I4
tp679
sI451
(g674
I5
tp680
sI452
(g674
I6
tp681
sI453
(g674
I7
tp682
sI454
(S's11004'
p683
I0
tp684
sI455
(S's11086'
p685
I0
tp686
sI456
(g685
I1
tp687
sI457
(g685
I2
tp688
sI458
(S's11137'
p689
I0
tp690
sI459
(S's11191'
p691
I0
tp692
sI460
(g691
I1
tp693
sI461
(S's11244'
p694
I0
tp695
sI462
(g694
I1
tp696
sI463
(S's11280'
p697
I0
tp698
sI464
(g697
I1
tp699
sI465
(S's11403'
p700
I0
tp701
sI466
(S's11590'
p702
I0
tp703
sI467
(S's11609'
p704
I0
tp705
sI468
(g704
I1
tp706
sI469
(g704
I2
tp707
sI470
(S's11684'
p708
I0
tp709
sI471
(g708
I1
tp710
sI472
(g708
I2
tp711
sI473
(S's11698'
p712
I0
tp713
sI474
(g712
I1
tp714
sI475
(g712
I2
tp715
sI476
(S's11710'
p716
I0
tp717
sI477
(S's11763'
p718
I0
tp719
sI478
(g718
I1
tp720
sI479
(S's11764'
p721
I0
tp722
sI480
(S's11850'
p723
I0
tp724
sI481
(g723
I1
tp725
sI482
(g723
I2
tp726
sI483
(S's12090'
p727
I0
tp728
sI484
(S's12212'
p729
I0
tp730
sI485
(S's12215'
p731
I0
tp732
sI486
(g731
I1
tp733
sI487
(g731
I2
tp734
sI488
(S's12231'
p735
I0
tp736
sI489
(S's12331'
p737
I0
tp738
sI490
(g737
I1
tp739
sI491
(g737
I2
tp740
sI492
(S's12351'
p741
I0
tp742
sI493
(g741
I1
tp743
sI494
(S's12372'
p744
I0
tp745
sI495
(g744
I1
tp746
sI496
(S's12461'
p747
I0
tp748
sI497
(S's12573'
p749
I0
tp750
sI498
(g749
I1
tp751
sI499
(g749
I2
tp752
sI500
(S's12581'
p753
I0
tp754
sI501
(g753
I1
tp755
sI502
(S's12632'
p756
I0
tp757
sI503
(g756
I1
tp758
sI504
(g756
I2
tp759
sI505
(g756
I3
tp760
sI506
(g756
I4
tp761
sI507
(g756
I5
tp762
sI508
(g756
I6
tp763
sI509
(S's12704'
p764
I0
tp765
sI510
(g764
I1
tp766
sI511
(S's12727'
p767
I0
tp768
sI512
(g767
I1
tp769
sI513
(S's12739'
p770
I0
tp771
sI514
(g770
I1
tp772
sI515
(S's12807'
p773
I0
tp774
sI516
(S's12821'
p775
I0
tp776
sI517
(S's12915'
p777
I0
tp778
sI518
(g777
I1
tp779
sI519
(S's12974'
p780
I0
tp781
sI520
(S's13033'
p782
I0
tp783
sI521
(g782
I1
tp784
sI522
(g782
I2
tp785
sI523
(g782
I3
tp786
sI524
(g782
I4
tp787
sI525
(g782
I5
tp788
sI526
(g782
I6
tp789
sI527
(g782
I7
tp790
sI528
(g782
I8
tp791
sI529
(g782
I9
tp792
sI530
(g782
I10
tp793
sI531
(g782
I11
tp794
sI532
(S's13136'
p795
I0
tp796
sI533
(g795
I1
tp797
sI534
(S's13274'
p798
I0
tp799
sI535
(S's13355'
p800
I0
tp801
sI536
(g800
I1
tp802
sI537
(g800
I2
tp803
sI538
(S's13438'
p804
I0
tp805
sI539
(g804
I1
tp806
sI540
(g804
I2
tp807
sI541
(g804
I3
tp808
sI542
(g804
I4
tp809
sI543
(g804
I5
tp810
sI544
(g804
I6
tp811
sI545
(g804
I7
tp812
sI546
(S's13536'
p813
I0
tp814
sI547
(g813
I1
tp815
sI548
(g813
I2
tp816
sI549
(S's13552'
p817
I0
tp818
sI550
(S's13599'
p819
I0
tp820
sI551
(g819
I1
tp821
sI552
(g819
I2
tp822
sI553
(S's13600'
p823
I0
tp824
sI554
(g823
I1
tp825
sI555
(S's13640'
p826
I0
tp827
sI556
(S's13646'
p828
I0
tp829
sI557
(S's13715'
p830
I0
tp831
sI558
(g830
I1
tp832
sI559
(g830
I2
tp833
sI560
(g830
I3
tp834
sI561
(g830
I4
tp835
sI562
(S's13720'
p836
I0
tp837
sI563
(S's13728'
p838
I0
tp839
sI564
(S's13759'
p840
I0
tp841
sI565
(g840
I1
tp842
sI566
(S's13852'
p843
I0
tp844
sI567
(g843
I1
tp845
sI568
(g843
I2
tp846
sI569
(g843
I3
tp847
sI570
(g843
I4
tp848
sI571
(S's13868'
p849
I0
tp850
sI572
(g849
I1
tp851
sI573
(S's13993'
p852
I0
tp853
sI574
(g852
I1
tp854
sI575
(S's14059'
p855
I0
tp856
sI576
(g855
I1
tp857
sI577
(S's14123'
p858
I0
tp859
sI578
(g858
I1
tp860
sI579
(S's14168'
p861
I0
tp862
sI580
(S's14266'
p863
I0
tp864
sI581
(S's14291'
p865
I0
tp866
sI582
(S's14410'
p867
I0
tp868
sI583
(S's14486'
p869
I0
tp870
sI584
(g869
I1
tp871
sI585
(g869
I2
tp872
sI586
(S's14561'
p873
I0
tp874
sI587
(g873
I1
tp875
sI588
(S's14579'
p876
I0
tp877
sI589
(g876
I1
tp878
sI590
(g876
I2
tp879
sI591
(g876
I3
tp880
sI592
(S's14622'
p881
I0
tp882
sI593
(g881
I1
tp883
sI594
(S's14626'
p884
I0
tp885
sI595
(S's14669'
p886
I0
tp887
sI596
(g886
I1
tp888
sI597
(S's14763'
p889
I0
tp890
sI598
(S's14784'
p891
I0
tp892
sI599
(g891
I1
tp893
sI600
(g891
I2
tp894
sI601
(g891
I3
tp895
sI602
(S's14855'
p896
I0
tp897
sI603
(g896
I1
tp898
sI604
(S's14935'
p899
I0
tp900
sI605
(g899
I1
tp901
sI606
(S's14936'
p902
I0
tp903
sI607
(g902
I1
tp904
sI608
(S's15110'
p905
I0
tp906
sI609
(g905
I1
tp907
sI610
(S's15143'
p908
I0
tp909
sI611
(S's15208'
p910
I0
tp911
sI612
(g910
I1
tp912
sI613
(S's15218'
p913
I0
tp914
sI614
(S's15266'
p915
I0
tp916
sI615
(S's15279'
p917
I0
tp918
sI616
(g917
I1
tp919
sI617
(S's15329'
p920
I0
tp921
sI618
(g920
I1
tp922
sI619
(S's15330'
p923
I0
tp924
sI620
(g923
I1
tp925
sI621
(S's15332'
p926
I0
tp927
sI622
(S's15382'
p928
I0
tp929
sI623
(S's15457'
p930
I0
tp931
sI624
(S's15470'
p932
I0
tp933
sI625
(S's15509'
p934
I0
tp935
sI626
(S's15524'
p936
I0
tp937
sI627
(S's15624'
p938
I0
tp939
sI628
(g938
I1
tp940
sI629
(g938
I2
tp941
sI630
(g938
I3
tp942
sI631
(g938
I4
tp943
sI632
(g938
I5
tp944
sI633
(g938
I6
tp945
sI634
(g938
I7
tp946
sI635
(g938
I8
tp947
sI636
(S's15646'
p948
I0
tp949
sI637
(g948
I1
tp950
sI638
(S's15654'
p951
I0
tp952
sI639
(g951
I1
tp953
sI640
(S's15703'
p954
I0
tp955
sI641
(g954
I1
tp956
sI642
(g954
I2
tp957
sI643
(S's15779'
p958
I0
tp959
sI644
(g958
I1
tp960
sI645
(S's15809'
p961
I0
tp962
sI646
(g961
I1
tp963
sI647
(g961
I2
tp964
sI648
(g961
I3
tp965
sI649
(g961
I4
tp966
sI650
(S's15902'
p967
I0
tp968
sI651
(S's15903'
p969
I0
tp970
sI652
(g969
I1
tp971
sI653
(S's15911'
p972
I0
tp973
sI654
(g972
I1
tp974
sI655
(S's15929'
p975
I0
tp976
sI656
(g975
I1
tp977
s.